; Function Attrs: mustprogress uwtable
define void @_ZNK32pxrInternal_v0_24__pxrReserved__26UsdShadeMaterialBindingAPI23GetCollectionBindingRelERKNS_7TfTokenES3_(ptr dead_on_unwind noalias writable sret(%"class.pxrInternal_v0_24__pxrReserved__::UsdRelationship") align 8 %0, ptr noundef nonnull align 8 dereferenceable(32) %1, ptr noundef nonnull align 8 dereferenceable(8) %2, ptr nocapture noundef nonnull readonly align 8 dereferenceable(8) %3) local_unnamed_addr #0 align 2 personality ptr @__gxx_personality_v0 {
  %5 = alloca %"class.pxrInternal_v0_24__pxrReserved__::UsdPrim", align 8
  %6 = alloca %"class.pxrInternal_v0_24__pxrReserved__::TfToken", align 8
  %7 = getelementptr inbounds nuw i8, ptr %1, i64 8
  %8 = getelementptr inbounds nuw i8, ptr %1, i64 16
  call void @_ZN32pxrInternal_v0_24__pxrReserved__9UsdObjectC2ERKNS_18Usd_PrimDataHandleERKNS_7SdfPathE(ptr noundef nonnull align 8 dereferenceable(32) %5, ptr noundef nonnull align 8 dereferenceable(8) %7, ptr noundef nonnull align 4 dereferenceable(8) %8)
  invoke fastcc void @_ZN32pxrInternal_v0_24__pxrReserved__L28_GetCollectionBindingRelNameERKNS_7TfTokenES2_(ptr dead_on_unwind noalias nonnull writable align 8 %6, ptr noundef nonnull align 8 dereferenceable(8) %2, ptr noundef nonnull align 8 dereferenceable(8) %3)
          to label %9 unwind label %51

9:                                                ; preds = %4
  invoke void @_ZNK32pxrInternal_v0_24__pxrReserved__7UsdPrim15GetRelationshipERKNS_7TfTokenE(ptr dead_on_unwind writable sret(%"class.pxrInternal_v0_24__pxrReserved__::UsdRelationship") align 8 %0, ptr noundef nonnull align 8 dereferenceable(32) %5, ptr noundef nonnull align 8 dereferenceable(8) %6)
          to label %10 unwind label %53

10:                                               ; preds = %9
  %11 = load ptr, ptr %6, align 8
  %12 = ptrtoint ptr %11 to i64
  %13 = and i64 %12, 7
  %.not.i.i = icmp eq i64 %13, 0
  br i1 %.not.i.i, label %_ZN32pxrInternal_v0_24__pxrReserved__7TfTokenD2Ev.exit, label %14

14:                                               ; preds = %10
  %15 = and i64 %12, -8
  %16 = inttoptr i64 %15 to ptr
  %17 = atomicrmw sub ptr %16, i32 2 release, align 4
  br label %_ZN32pxrInternal_v0_24__pxrReserved__7TfTokenD2Ev.exit

_ZN32pxrInternal_v0_24__pxrReserved__7TfTokenD2Ev.exit: ; preds = %10, %14
  %18 = getelementptr inbounds nuw i8, ptr %5, i64 24
  %19 = load ptr, ptr %18, align 8
  %20 = ptrtoint ptr %19 to i64
  %21 = and i64 %20, 7
  %.not.i.i.i.i = icmp eq i64 %21, 0
  br i1 %.not.i.i.i.i, label %_ZN32pxrInternal_v0_24__pxrReserved__7TfTokenD2Ev.exit.i.i, label %22

22:                                               ; preds = %_ZN32pxrInternal_v0_24__pxrReserved__7TfTokenD2Ev.exit
  %23 = and i64 %20, -8
  %24 = inttoptr i64 %23 to ptr
  %25 = atomicrmw sub ptr %24, i32 2 release, align 4
  br label %_ZN32pxrInternal_v0_24__pxrReserved__7TfTokenD2Ev.exit.i.i

_ZN32pxrInternal_v0_24__pxrReserved__7TfTokenD2Ev.exit.i.i: ; preds = %22, %_ZN32pxrInternal_v0_24__pxrReserved__7TfTokenD2Ev.exit
  %26 = getelementptr inbounds nuw i8, ptr %5, i64 16
  %27 = load i32, ptr %26, align 8
  %.not.i.i1.i.i = icmp eq i32 %27, 0
  br i1 %.not.i.i1.i.i, label %_ZN32pxrInternal_v0_24__pxrReserved__7SdfPathD2Ev.exit.i.i, label %28

28:                                               ; preds = %_ZN32pxrInternal_v0_24__pxrReserved__7TfTokenD2Ev.exit.i.i
  %29 = and i32 %27, 255
  %30 = lshr i32 %27, 8
  %31 = zext nneg i32 %29 to i64
  %32 = getelementptr inbounds [257 x ptr], ptr @_ZN32pxrInternal_v0_24__pxrReserved__8Sdf_PoolINS_15Sdf_PathPrimTagELj24ELj8ELj16384EE13_regionStartsE, i64 0, i64 %31
  %33 = load ptr, ptr %32, align 8
  %34 = mul nuw nsw i32 %30, 24
  %35 = zext nneg i32 %34 to i64
  %36 = getelementptr inbounds i8, ptr %33, i64 %35
  %37 = getelementptr inbounds nuw i8, ptr %36, i64 8
  %38 = atomicrmw sub ptr %37, i32 1 seq_cst, align 4
  %39 = and i32 %38, 2147483647
  %40 = icmp eq i32 %39, 1
  br i1 %40, label %41, label %_ZN32pxrInternal_v0_24__pxrReserved__7SdfPathD2Ev.exit.i.i

41:                                               ; preds = %28
  invoke void @_ZNK32pxrInternal_v0_24__pxrReserved__12Sdf_PathNode8_DestroyEv(ptr noundef nonnull align 8 dereferenceable(16) %36)
          to label %_ZN32pxrInternal_v0_24__pxrReserved__7SdfPathD2Ev.exit.i.i unwind label %42

42:                                               ; preds = %41
  %43 = landingpad { ptr, i32 }
          catch ptr null
  %44 = extractvalue { ptr, i32 } %43, 0
  call void @__clang_call_terminate(ptr %44) #23
  unreachable

_ZN32pxrInternal_v0_24__pxrReserved__7SdfPathD2Ev.exit.i.i: ; preds = %41, %28, %_ZN32pxrInternal_v0_24__pxrReserved__7TfTokenD2Ev.exit.i.i
  %45 = getelementptr inbounds nuw i8, ptr %5, i64 8
  %46 = load ptr, ptr %45, align 8
  %.not.i.i.i.i.i = icmp eq ptr %46, null
  br i1 %.not.i.i.i.i.i, label %_ZN32pxrInternal_v0_24__pxrReserved__7UsdPrimD2Ev.exit, label %47

47:                                               ; preds = %_ZN32pxrInternal_v0_24__pxrReserved__7SdfPathD2Ev.exit.i.i
  %48 = getelementptr inbounds nuw i8, ptr %46, i64 48
  %49 = atomicrmw sub ptr %48, i64 1 release, align 8
  %.not1.i.i.i.i.i = icmp eq i64 %49, 1
  br i1 %.not1.i.i.i.i.i, label %50, label %_ZN32pxrInternal_v0_24__pxrReserved__7UsdPrimD2Ev.exit

50:                                               ; preds = %47
  call void @_ZN32pxrInternal_v0_24__pxrReserved__12Usd_PrimDataD1Ev(ptr noundef nonnull align 8 dereferenceable(64) %46) #21
  call void @_ZdlPvm(ptr noundef nonnull %46, i64 noundef 64) #22
  br label %_ZN32pxrInternal_v0_24__pxrReserved__7UsdPrimD2Ev.exit

_ZN32pxrInternal_v0_24__pxrReserved__7UsdPrimD2Ev.exit: ; preds = %_ZN32pxrInternal_v0_24__pxrReserved__7SdfPathD2Ev.exit.i.i, %47, %50
  ret void

51:                                               ; preds = %4
  %52 = landingpad { ptr, i32 }
          cleanup
  br label %_ZN32pxrInternal_v0_24__pxrReserved__7TfTokenD2Ev.exit7

53:                                               ; preds = %9
  %54 = landingpad { ptr, i32 }
          cleanup
  %55 = load ptr, ptr %6, align 8
  %56 = ptrtoint ptr %55 to i64
  %57 = and i64 %56, 7
  %.not.i.i6 = icmp eq i64 %57, 0
  br i1 %.not.i.i6, label %_ZN32pxrInternal_v0_24__pxrReserved__7TfTokenD2Ev.exit7, label %58

58:                                               ; preds = %53
  %59 = and i64 %56, -8
  %60 = inttoptr i64 %59 to ptr
  %61 = atomicrmw sub ptr %60, i32 2 release, align 4
  br label %_ZN32pxrInternal_v0_24__pxrReserved__7TfTokenD2Ev.exit7

_ZN32pxrInternal_v0_24__pxrReserved__7TfTokenD2Ev.exit7: ; preds = %58, %53, %51
  %.pn = phi { ptr, i32 } [ %52, %51 ], [ %54, %53 ], [ %54, %58 ]
  call void @_ZN32pxrInternal_v0_24__pxrReserved__7UsdPrimD2Ev(ptr noundef nonnull align 8 dereferenceable(32) %5) #21
  resume { ptr, i32 } %.pn
}